target datalayout = "e-m:e-p270:32:32-p271:32:32-p272:64:64-i64:64-i128:128-f80:128-n8:16:32:64-S128"
target triple = "x86_64-pc-linux-gnu"

%union.pthread_mutex_t = type { %struct.__pthread_mutex_s }
%struct.__pthread_mutex_s = type { i32, i32, i32, i32, i32, i16, i16, %struct.__pthread_internal_list }
%struct.__pthread_internal_list = type { ptr, ptr }
%struct.gmx_fft = type { [2 x [2 x [2 x ptr]]], i32, i32 }
%"class.std::__mutex_base" = type { %union.pthread_mutex_t }

@_ZTISt9exception = external constant ptr
@_ZL14big_fftw_mutex = internal global { %union.pthread_mutex_t } zeroinitializer, align 8

; Function Attrs: inlinehint mustprogress nounwind uwtable
define internal noundef i32 @_ZL18__gthread_active_pv() #11 {
  ret i32 1
}

; Function Attrs: inlinehint mustprogress nounwind uwtable
define internal noundef i32 @_ZL22__gthread_mutex_unlockP15pthread_mutex_t(ptr noundef %0) #11 {
  %2 = alloca i32, align 4
  %3 = alloca ptr, align 8
  store ptr %0, ptr %3, align 8, !tbaa !85
  %4 = call noundef i32 @_ZL18__gthread_active_pv()
  %5 = icmp ne i32 %4, 0
  br i1 %5, label %6, label %9

6:                                                ; preds = %1
  %7 = load ptr, ptr %3, align 8, !tbaa !85
  %8 = call i32 @pthread_mutex_unlock(ptr noundef %7) #13
  store i32 %8, ptr %2, align 4
  br label %10

9:                                                ; preds = %1
  store i32 0, ptr %2, align 4
  br label %10

10:                                               ; preds = %9, %6
  %11 = load i32, ptr %2, align 4
  ret i32 %11
}

; Function Attrs: inlinehint mustprogress uwtable
define internal noundef i32 @_ZL20__gthread_mutex_lockP15pthread_mutex_t(ptr noundef %0) #9 {
  %2 = alloca i32, align 4
  %3 = alloca ptr, align 8
  store ptr %0, ptr %3, align 8, !tbaa !85
  %4 = call noundef i32 @_ZL18__gthread_active_pv()
  %5 = icmp ne i32 %4, 0
  br i1 %5, label %6, label %9

6:                                                ; preds = %1
  %7 = load ptr, ptr %3, align 8, !tbaa !85
  %8 = call i32 @pthread_mutex_lock(ptr noundef %7) #13
  store i32 %8, ptr %2, align 4
  br label %10

9:                                                ; preds = %1
  store i32 0, ptr %2, align 4
  br label %10

10:                                               ; preds = %9, %6
  %11 = load i32, ptr %2, align 4
  ret i32 %11
}

; Function Attrs: mustprogress uwtable
define linkonce_odr void @_ZNSt5mutex6unlockEv(ptr noundef nonnull align 8 dereferenceable(40) %0) #0 comdat align 2 {
  %2 = alloca ptr, align 8
  store ptr %0, ptr %2, align 8, !tbaa !33
  %3 = load ptr, ptr %2, align 8
  %4 = getelementptr inbounds nuw %"class.std::__mutex_base", ptr %3, i32 0, i32 0
  %5 = call noundef i32 @_ZL22__gthread_mutex_unlockP15pthread_mutex_t(ptr noundef %4)
  ret void
}

; Function Attrs: mustprogress uwtable
define linkonce_odr void @_ZNSt5mutex4lockEv(ptr noundef nonnull align 8 dereferenceable(40) %0) #0 comdat align 2 {
  %2 = alloca ptr, align 8
  %3 = alloca i32, align 4
  store ptr %0, ptr %2, align 8, !tbaa !33
  %4 = load ptr, ptr %2, align 8
  call void @llvm.lifetime.start.p0(i64 4, ptr %3) #13
  %5 = getelementptr inbounds nuw %"class.std::__mutex_base", ptr %4, i32 0, i32 0
  %6 = call noundef i32 @_ZL20__gthread_mutex_lockP15pthread_mutex_t(ptr noundef %5)
  store i32 %6, ptr %3, align 4, !tbaa !10
  %7 = load i32, ptr %3, align 4, !tbaa !10
  %8 = icmp ne i32 %7, 0
  br i1 %8, label %9, label %11

9:                                                ; preds = %1
  %10 = load i32, ptr %3, align 4, !tbaa !10
  call void @_ZSt20__throw_system_errori(i32 noundef %10) #14
  unreachable

11:                                               ; preds = %1
  call void @llvm.lifetime.end.p0(i64 4, ptr %3) #13
  ret void
}

; Function Attrs: mustprogress uwtable
define void @_Z15gmx_fft_destroyP7gmx_fft(ptr noundef %0) #0 personality ptr @__gxx_personality_v0 {
  %2 = alloca ptr, align 8
  %3 = alloca i32, align 4
  %4 = alloca i32, align 4
  %5 = alloca i32, align 4
  %6 = alloca ptr, align 8
  %7 = alloca i32, align 4
  %8 = alloca ptr, align 8
  %9 = alloca ptr, align 8
  %10 = alloca ptr, align 8
  %11 = alloca ptr, align 8
  store ptr %0, ptr %2, align 8, !tbaa !12
  call void @llvm.lifetime.start.p0(i64 4, ptr %3) #13
  call void @llvm.lifetime.start.p0(i64 4, ptr %4) #13
  call void @llvm.lifetime.start.p0(i64 4, ptr %5) #13
  %12 = load ptr, ptr %2, align 8, !tbaa !12
  %13 = icmp ne ptr %12, null
  br i1 %13, label %14, label %158

14:                                               ; preds = %1
  store i32 0, ptr %3, align 4, !tbaa !10
  br label %15

15:                                               ; preds = %113, %14
  %16 = load i32, ptr %3, align 4, !tbaa !10
  %17 = icmp slt i32 %16, 2
  br i1 %17, label %18, label %116

18:                                               ; preds = %15
  store i32 0, ptr %4, align 4, !tbaa !10
  br label %19

19:                                               ; preds = %109, %18
  %20 = load i32, ptr %4, align 4, !tbaa !10
  %21 = icmp slt i32 %20, 2
  br i1 %21, label %22, label %112

22:                                               ; preds = %19
  store i32 0, ptr %5, align 4, !tbaa !10
  br label %23

23:                                               ; preds = %105, %22
  %24 = load i32, ptr %5, align 4, !tbaa !10
  %25 = icmp slt i32 %24, 2
  br i1 %25, label %26, label %108

26:                                               ; preds = %23
  %27 = load ptr, ptr %2, align 8, !tbaa !12
  %28 = getelementptr inbounds nuw %struct.gmx_fft, ptr %27, i32 0, i32 0
  %29 = load i32, ptr %3, align 4, !tbaa !10
  %30 = sext i32 %29 to i64
  %31 = getelementptr inbounds [2 x [2 x [2 x ptr]]], ptr %28, i64 0, i64 %30
  %32 = load i32, ptr %4, align 4, !tbaa !10
  %33 = sext i32 %32 to i64
  %34 = getelementptr inbounds [2 x [2 x ptr]], ptr %31, i64 0, i64 %33
  %35 = load i32, ptr %5, align 4, !tbaa !10
  %36 = sext i32 %35 to i64
  %37 = getelementptr inbounds [2 x ptr], ptr %34, i64 0, i64 %36
  %38 = load ptr, ptr %37, align 8, !tbaa !20
  %39 = icmp ne ptr %38, null
  br i1 %39, label %40, label %104

40:                                               ; preds = %26
  invoke void @_ZNSt5mutex4lockEv(ptr noundef nonnull align 8 dereferenceable(40) @_ZL14big_fftw_mutex)
          to label %41 unwind label %42

41:                                               ; preds = %40
  br label %60

42:                                               ; preds = %40
  %43 = landingpad { ptr, i32 }
          cleanup
          catch ptr @_ZTISt9exception
  %44 = extractvalue { ptr, i32 } %43, 0
  store ptr %44, ptr %6, align 8
  %45 = extractvalue { ptr, i32 } %43, 1
  store i32 %45, ptr %7, align 4
  br label %46

46:                                               ; preds = %42
  %47 = load i32, ptr %7, align 4
  %48 = call i32 @llvm.eh.typeid.for.p0(ptr @_ZTISt9exception) #13
  %49 = icmp eq i32 %47, %48
  br i1 %49, label %50, label %159

50:                                               ; preds = %46
  call void @llvm.lifetime.start.p0(i64 8, ptr %8) #13
  %51 = load ptr, ptr %6, align 8
  %52 = call ptr @__cxa_begin_catch(ptr %51) #13
  store ptr %52, ptr %8, align 8
  %53 = load ptr, ptr %8, align 8, !tbaa !14
  invoke void @_ZN3gmx28processExceptionAsFatalErrorERKSt9exception(ptr noundef nonnull align 8 dereferenceable(8) %53) #14
          to label %54 unwind label %55

54:                                               ; preds = %50
  unreachable

55:                                               ; preds = %50
  %56 = landingpad { ptr, i32 }
          cleanup
  %57 = extractvalue { ptr, i32 } %56, 0
  store ptr %57, ptr %6, align 8
  %58 = extractvalue { ptr, i32 } %56, 1
  store i32 %58, ptr %7, align 4
  invoke void @__cxa_end_catch()
          to label %59 unwind label %165

59:                                               ; preds = %55
  call void @llvm.lifetime.end.p0(i64 8, ptr %8) #13
  br label %159

60:                                               ; preds = %41
  %61 = load ptr, ptr %2, align 8, !tbaa !12
  %62 = getelementptr inbounds nuw %struct.gmx_fft, ptr %61, i32 0, i32 0
  %63 = load i32, ptr %3, align 4, !tbaa !10
  %64 = sext i32 %63 to i64
  %65 = getelementptr inbounds [2 x [2 x [2 x ptr]]], ptr %62, i64 0, i64 %64
  %66 = load i32, ptr %4, align 4, !tbaa !10
  %67 = sext i32 %66 to i64
  %68 = getelementptr inbounds [2 x [2 x ptr]], ptr %65, i64 0, i64 %67
  %69 = load i32, ptr %5, align 4, !tbaa !10
  %70 = sext i32 %69 to i64
  %71 = getelementptr inbounds [2 x ptr], ptr %68, i64 0, i64 %70
  %72 = load ptr, ptr %71, align 8, !tbaa !20
  call void @fftwf_destroy_plan(ptr noundef %72)
  invoke void @_ZNSt5mutex6unlockEv(ptr noundef nonnull align 8 dereferenceable(40) @_ZL14big_fftw_mutex)
          to label %73 unwind label %74

73:                                               ; preds = %60
  br label %92

74:                                               ; preds = %60
  %75 = landingpad { ptr, i32 }
          cleanup
          catch ptr @_ZTISt9exception
  %76 = extractvalue { ptr, i32 } %75, 0
  store ptr %76, ptr %6, align 8
  %77 = extractvalue { ptr, i32 } %75, 1
  store i32 %77, ptr %7, align 4
  br label %78

78:                                               ; preds = %74
  %79 = load i32, ptr %7, align 4
  %80 = call i32 @llvm.eh.typeid.for.p0(ptr @_ZTISt9exception) #13
  %81 = icmp eq i32 %79, %80
  br i1 %81, label %82, label %159

82:                                               ; preds = %78
  call void @llvm.lifetime.start.p0(i64 8, ptr %9) #13
  %83 = load ptr, ptr %6, align 8
  %84 = call ptr @__cxa_begin_catch(ptr %83) #13
  store ptr %84, ptr %9, align 8
  %85 = load ptr, ptr %9, align 8, !tbaa !14
  invoke void @_ZN3gmx28processExceptionAsFatalErrorERKSt9exception(ptr noundef nonnull align 8 dereferenceable(8) %85) #14
          to label %86 unwind label %87

86:                                               ; preds = %82
  unreachable

87:                                               ; preds = %82
  %88 = landingpad { ptr, i32 }
          cleanup
  %89 = extractvalue { ptr, i32 } %88, 0
  store ptr %89, ptr %6, align 8
  %90 = extractvalue { ptr, i32 } %88, 1
  store i32 %90, ptr %7, align 4
  invoke void @__cxa_end_catch()
          to label %91 unwind label %165

91:                                               ; preds = %87
  call void @llvm.lifetime.end.p0(i64 8, ptr %9) #13
  br label %159

92:                                               ; preds = %73
  %93 = load ptr, ptr %2, align 8, !tbaa !12
  %94 = getelementptr inbounds nuw %struct.gmx_fft, ptr %93, i32 0, i32 0
  %95 = load i32, ptr %3, align 4, !tbaa !10
  %96 = sext i32 %95 to i64
  %97 = getelementptr inbounds [2 x [2 x [2 x ptr]]], ptr %94, i64 0, i64 %96
  %98 = load i32, ptr %4, align 4, !tbaa !10
  %99 = sext i32 %98 to i64
  %100 = getelementptr inbounds [2 x [2 x ptr]], ptr %97, i64 0, i64 %99
  %101 = load i32, ptr %5, align 4, !tbaa !10
  %102 = sext i32 %101 to i64
  %103 = getelementptr inbounds [2 x ptr], ptr %100, i64 0, i64 %102
  store ptr null, ptr %103, align 8, !tbaa !20
  br label %104

104:                                              ; preds = %92, %26
  br label %105

105:                                              ; preds = %104
  %106 = load i32, ptr %5, align 4, !tbaa !10
  %107 = add nsw i32 %106, 1
  store i32 %107, ptr %5, align 4, !tbaa !10
  br label %23, !llvm.loop !98

108:                                              ; preds = %23
  br label %109

109:                                              ; preds = %108
  %110 = load i32, ptr %4, align 4, !tbaa !10
  %111 = add nsw i32 %110, 1
  store i32 %111, ptr %4, align 4, !tbaa !10
  br label %19, !llvm.loop !99

112:                                              ; preds = %19
  br label %113

113:                                              ; preds = %112
  %114 = load i32, ptr %3, align 4, !tbaa !10
  %115 = add nsw i32 %114, 1
  store i32 %115, ptr %3, align 4, !tbaa !10
  br label %15, !llvm.loop !100

116:                                              ; preds = %15
  invoke void @_ZNSt5mutex4lockEv(ptr noundef nonnull align 8 dereferenceable(40) @_ZL14big_fftw_mutex)
          to label %117 unwind label %118

117:                                              ; preds = %116
  br label %136

118:                                              ; preds = %116
  %119 = landingpad { ptr, i32 }
          cleanup
          catch ptr @_ZTISt9exception
  %120 = extractvalue { ptr, i32 } %119, 0
  store ptr %120, ptr %6, align 8
  %121 = extractvalue { ptr, i32 } %119, 1
  store i32 %121, ptr %7, align 4
  br label %122

122:                                              ; preds = %118
  %123 = load i32, ptr %7, align 4
  %124 = call i32 @llvm.eh.typeid.for.p0(ptr @_ZTISt9exception) #13
  %125 = icmp eq i32 %123, %124
  br i1 %125, label %126, label %159

126:                                              ; preds = %122
  call void @llvm.lifetime.start.p0(i64 8, ptr %10) #13
  %127 = load ptr, ptr %6, align 8
  %128 = call ptr @__cxa_begin_catch(ptr %127) #13
  store ptr %128, ptr %10, align 8
  %129 = load ptr, ptr %10, align 8, !tbaa !14
  invoke void @_ZN3gmx28processExceptionAsFatalErrorERKSt9exception(ptr noundef nonnull align 8 dereferenceable(8) %129) #14
          to label %130 unwind label %131

130:                                              ; preds = %126
  unreachable

131:                                              ; preds = %126
  %132 = landingpad { ptr, i32 }
          cleanup
  %133 = extractvalue { ptr, i32 } %132, 0
  store ptr %133, ptr %6, align 8
  %134 = extractvalue { ptr, i32 } %132, 1
  store i32 %134, ptr %7, align 4
  invoke void @__cxa_end_catch()
          to label %135 unwind label %165

135:                                              ; preds = %131
  call void @llvm.lifetime.end.p0(i64 8, ptr %10) #13
  br label %159

136:                                              ; preds = %117
  %137 = load ptr, ptr %2, align 8, !tbaa !12
  call void @fftwf_free(ptr noundef %137)
  invoke void @_ZNSt5mutex6unlockEv(ptr noundef nonnull align 8 dereferenceable(40) @_ZL14big_fftw_mutex)
          to label %138 unwind label %139

138:                                              ; preds = %136
  br label %157

139:                                              ; preds = %136
  %140 = landingpad { ptr, i32 }
          cleanup
          catch ptr @_ZTISt9exception
  %141 = extractvalue { ptr, i32 } %140, 0
  store ptr %141, ptr %6, align 8
  %142 = extractvalue { ptr, i32 } %140, 1
  store i32 %142, ptr %7, align 4
  br label %143

143:                                              ; preds = %139
  %144 = load i32, ptr %7, align 4
  %145 = call i32 @llvm.eh.typeid.for.p0(ptr @_ZTISt9exception) #13
  %146 = icmp eq i32 %144, %145
  br i1 %146, label %147, label %159

147:                                              ; preds = %143
  call void @llvm.lifetime.start.p0(i64 8, ptr %11) #13
  %148 = load ptr, ptr %6, align 8
  %149 = call ptr @__cxa_begin_catch(ptr %148) #13
  store ptr %149, ptr %11, align 8
  %150 = load ptr, ptr %11, align 8, !tbaa !14
  invoke void @_ZN3gmx28processExceptionAsFatalErrorERKSt9exception(ptr noundef nonnull align 8 dereferenceable(8) %150) #14
          to label %151 unwind label %152

151:                                              ; preds = %147
  unreachable

152:                                              ; preds = %147
  %153 = landingpad { ptr, i32 }
          cleanup
  %154 = extractvalue { ptr, i32 } %153, 0
  store ptr %154, ptr %6, align 8
  %155 = extractvalue { ptr, i32 } %153, 1
  store i32 %155, ptr %7, align 4
  invoke void @__cxa_end_catch()
          to label %156 unwind label %165

156:                                              ; preds = %152
  call void @llvm.lifetime.end.p0(i64 8, ptr %11) #13
  br label %159

157:                                              ; preds = %138
  br label %158

158:                                              ; preds = %157, %1
  call void @llvm.lifetime.end.p0(i64 4, ptr %5) #13
  call void @llvm.lifetime.end.p0(i64 4, ptr %4) #13
  call void @llvm.lifetime.end.p0(i64 4, ptr %3) #13
  ret void

159:                                              ; preds = %156, %143, %135, %122, %91, %78, %59, %46
  call void @llvm.lifetime.end.p0(i64 4, ptr %5) #13
  call void @llvm.lifetime.end.p0(i64 4, ptr %4) #13
  call void @llvm.lifetime.end.p0(i64 4, ptr %3) #13
  br label %160

160:                                              ; preds = %159
  %161 = load ptr, ptr %6, align 8
  %162 = load i32, ptr %7, align 4
  %163 = insertvalue { ptr, i32 } poison, ptr %161, 0
  %164 = insertvalue { ptr, i32 } %163, i32 %162, 1
  resume { ptr, i32 } %164

165:                                              ; preds = %152, %131, %87, %55
  %166 = landingpad { ptr, i32 }
          catch ptr null
  %167 = extractvalue { ptr, i32 } %166, 0
  call void @__clang_call_terminate(ptr %167) #15
  unreachable
}