; Function Attrs: mustprogress uwtable
define void @_Z15gmx_fft_destroyP7gmx_fft(ptr noundef %0) local_unnamed_addr #0 personality ptr @__gxx_personality_v0 {
  %.not = icmp eq ptr %0, null
  br i1 %.not, label %43, label %.preheader46

.preheader46:                                     ; preds = %1, %27
  %2 = phi i1 [ false, %27 ], [ true, %1 ]
  %indvars.iv55 = phi i64 [ 1, %27 ], [ 0, %1 ]
  br label %.preheader

.preheader:                                       ; preds = %.preheader46, %26
  %3 = phi i1 [ true, %.preheader46 ], [ false, %26 ]
  %indvars.iv52 = phi i64 [ 0, %.preheader46 ], [ 1, %26 ]
  br label %4

4:                                                ; preds = %.preheader, %25
  %5 = phi i1 [ true, %.preheader ], [ false, %25 ]
  %indvars.iv = phi i64 [ 0, %.preheader ], [ 1, %25 ]
  %6 = getelementptr inbounds nuw [2 x [2 x [2 x ptr]]], ptr %0, i64 0, i64 %indvars.iv55, i64 %indvars.iv52, i64 %indvars.iv
  %7 = load ptr, ptr %6, align 8, !tbaa !11
  %.not42 = icmp eq ptr %7, null
  br i1 %.not42, label %25, label %8

8:                                                ; preds = %4
  %9 = tail call noundef i32 @pthread_mutex_lock(ptr noundef nonnull @_ZL14big_fftw_mutex) #13
  %.not.i = icmp eq i32 %9, 0
  br i1 %.not.i, label %22, label %10

10:                                               ; preds = %8
  invoke void @_ZSt20__throw_system_errori(i32 noundef %9) #14
          to label %.noexc unwind label %11

.noexc:                                           ; preds = %10
  unreachable

11:                                               ; preds = %10
  %12 = landingpad { ptr, i32 }
          cleanup
          catch ptr @_ZTISt9exception
  %13 = extractvalue { ptr, i32 } %12, 1
  %14 = tail call i32 @llvm.eh.typeid.for.p0(ptr nonnull @_ZTISt9exception) #13
  %15 = icmp eq i32 %13, %14
  br i1 %15, label %16, label %44

16:                                               ; preds = %11
  %17 = extractvalue { ptr, i32 } %12, 0
  %18 = tail call ptr @__cxa_begin_catch(ptr %17) #13
  invoke void @_ZN3gmx28processExceptionAsFatalErrorERKSt9exception(ptr noundef nonnull align 8 dereferenceable(8) %18) #14
          to label %19 unwind label %20

19:                                               ; preds = %16
  unreachable

20:                                               ; preds = %16
  %21 = landingpad { ptr, i32 }
          cleanup
  invoke void @__cxa_end_catch()
          to label %44 unwind label %45

22:                                               ; preds = %8
  %23 = load ptr, ptr %6, align 8, !tbaa !11
  tail call void @fftwf_destroy_plan(ptr noundef %23)
  %24 = tail call noundef i32 @pthread_mutex_unlock(ptr noundef nonnull @_ZL14big_fftw_mutex) #13
  store ptr null, ptr %6, align 8, !tbaa !11
  br label %25

25:                                               ; preds = %4, %22
  br i1 %5, label %4, label %26, !llvm.loop !37

26:                                               ; preds = %25
  br i1 %3, label %.preheader, label %27, !llvm.loop !38

27:                                               ; preds = %26
  br i1 %2, label %.preheader46, label %28, !llvm.loop !39

28:                                               ; preds = %27
  %29 = tail call noundef i32 @pthread_mutex_lock(ptr noundef nonnull @_ZL14big_fftw_mutex) #13
  %.not.i43 = icmp eq i32 %29, 0
  br i1 %.not.i43, label %_ZNSt5mutex4lockEv.exit45, label %30

30:                                               ; preds = %28
  invoke void @_ZSt20__throw_system_errori(i32 noundef %29) #14
          to label %.noexc44 unwind label %31

.noexc44:                                         ; preds = %30
  unreachable

31:                                               ; preds = %30
  %32 = landingpad { ptr, i32 }
          cleanup
          catch ptr @_ZTISt9exception
  %33 = extractvalue { ptr, i32 } %32, 1
  %34 = tail call i32 @llvm.eh.typeid.for.p0(ptr nonnull @_ZTISt9exception) #13
  %35 = icmp eq i32 %33, %34
  br i1 %35, label %36, label %44

36:                                               ; preds = %31
  %37 = extractvalue { ptr, i32 } %32, 0
  %38 = tail call ptr @__cxa_begin_catch(ptr %37) #13
  invoke void @_ZN3gmx28processExceptionAsFatalErrorERKSt9exception(ptr noundef nonnull align 8 dereferenceable(8) %38) #14
          to label %39 unwind label %40

39:                                               ; preds = %36
  unreachable

40:                                               ; preds = %36
  %41 = landingpad { ptr, i32 }
          cleanup
  invoke void @__cxa_end_catch()
          to label %44 unwind label %45

_ZNSt5mutex4lockEv.exit45:                        ; preds = %28
  tail call void @fftwf_free(ptr noundef nonnull %0)
  %42 = tail call noundef i32 @pthread_mutex_unlock(ptr noundef nonnull @_ZL14big_fftw_mutex) #13
  br label %43

43:                                               ; preds = %_ZNSt5mutex4lockEv.exit45, %1
  ret void

44:                                               ; preds = %40, %20, %31, %11
  %.merged = phi { ptr, i32 } [ %12, %11 ], [ %32, %31 ], [ %21, %20 ], [ %41, %40 ]
  resume { ptr, i32 } %.merged

45:                                               ; preds = %40, %20
  %46 = landingpad { ptr, i32 }
          catch ptr null
  %47 = extractvalue { ptr, i32 } %46, 0
  tail call void @__clang_call_terminate(ptr %47) #15
  unreachable
}